; Function Attrs: nounwind uwtable
define internal ptr @HeapCCollection_new(ptr noundef %0, ptr noundef readonly captures(none) %1, ptr readnone captures(none) %2) #0 {
  %4 = getelementptr i8, ptr %1, i64 8
  %.val.i = load ptr, ptr %4, align 8, !tbaa !9
  %5 = getelementptr i8, ptr %.val.i, i64 168
  %.val3.i = load i64, ptr %5, align 8, !tbaa !12
  %6 = and i64 %.val3.i, 67108864
  %.not.i = icmp eq i64 %6, 0
  br i1 %.not.i, label %7, label %8

7:                                                ; preds = %3
  tail call void @__assert_fail(ptr noundef nonnull @.str.77, ptr noundef nonnull @.str.78, i32 noundef 22, ptr noundef nonnull @__PRETTY_FUNCTION__.PyTuple_GET_SIZE) #10
  unreachable

8:                                                ; preds = %3
  %.not.i.i = icmp eq ptr %.val.i, @PyLong_Type
  br i1 %.not.i.i, label %9, label %10

9:                                                ; preds = %8
  tail call void @__assert_fail(ptr noundef nonnull @.str.81, ptr noundef nonnull @.str.82, i32 noundef 282, ptr noundef nonnull @__PRETTY_FUNCTION__.Py_SIZE) #10
  unreachable

10:                                               ; preds = %8
  %.not3.i.i = icmp eq ptr %.val.i, @PyBool_Type
  br i1 %.not3.i.i, label %11, label %PyTuple_GET_SIZE.exit

11:                                               ; preds = %10
  tail call void @__assert_fail(ptr noundef nonnull @.str.83, ptr noundef nonnull @.str.82, i32 noundef 283, ptr noundef nonnull @__PRETTY_FUNCTION__.Py_SIZE) #10
  unreachable

PyTuple_GET_SIZE.exit:                            ; preds = %10
  %12 = getelementptr inbounds nuw i8, ptr %1, i64 16
  %13 = load i64, ptr %12, align 8, !tbaa !49
  %14 = getelementptr inbounds nuw i8, ptr %0, i64 304
  %15 = load ptr, ptr %14, align 8, !tbaa !60
  %16 = tail call ptr %15(ptr noundef %0, i64 noundef %13) #8
  %.not = icmp eq ptr %16, null
  br i1 %.not, label %Py_XDECREF.exit, label %17

17:                                               ; preds = %PyTuple_GET_SIZE.exit
  %18 = tail call ptr @PyObject_GetItemData(ptr noundef nonnull %16) #8
  %.not21 = icmp eq ptr %18, null
  br i1 %.not21, label %34, label %.preheader

.preheader:                                       ; preds = %17
  %19 = icmp sgt i64 %13, 0
  br i1 %19, label %.lr.ph, label %Py_XDECREF.exit

.lr.ph:                                           ; preds = %.preheader
  %20 = getelementptr inbounds nuw i8, ptr %1, i64 24
  br label %21

21:                                               ; preds = %.lr.ph, %_Py_NewRef.exit
  %.030 = phi i64 [ 0, %.lr.ph ], [ %33, %_Py_NewRef.exit ]
  %.val = load ptr, ptr %4, align 8, !tbaa !9
  %22 = getelementptr i8, ptr %.val, i64 168
  %.val23 = load i64, ptr %22, align 8, !tbaa !12
  %23 = and i64 %.val23, 67108864
  %.not22 = icmp eq i64 %23, 0
  br i1 %.not22, label %24, label %25

24:                                               ; preds = %21
  tail call void @__assert_fail(ptr noundef nonnull @.str.64, ptr noundef nonnull @.str.41, i32 noundef 1229, ptr noundef nonnull @__PRETTY_FUNCTION__.HeapCCollection_new) #10
  unreachable

25:                                               ; preds = %21
  %26 = getelementptr [1 x ptr], ptr %20, i64 0, i64 %.030
  %27 = load ptr, ptr %26, align 8, !tbaa !23
  %28 = load i32, ptr %27, align 8, !tbaa !8
  %29 = icmp slt i32 %28, 0
  br i1 %29, label %_Py_NewRef.exit, label %30

30:                                               ; preds = %25
  %31 = add nuw i32 %28, 1
  store i32 %31, ptr %27, align 8, !tbaa !8
  br label %_Py_NewRef.exit

_Py_NewRef.exit:                                  ; preds = %25, %30
  %32 = getelementptr ptr, ptr %18, i64 %.030
  store ptr %27, ptr %32, align 8, !tbaa !23
  %33 = add nuw nsw i64 %.030, 1
  %exitcond.not = icmp eq i64 %33, %13
  br i1 %exitcond.not, label %Py_XDECREF.exit, label %21, !llvm.loop !61

34:                                               ; preds = %17
  %35 = load i32, ptr %16, align 8, !tbaa !8
  %.not.i.i25 = icmp sgt i32 %35, -1
  br i1 %.not.i.i25, label %36, label %Py_XDECREF.exit

36:                                               ; preds = %34
  %37 = add nsw i32 %35, -1
  store i32 %37, ptr %16, align 8, !tbaa !8
  %38 = icmp eq i32 %37, 0
  br i1 %38, label %39, label %Py_XDECREF.exit

39:                                               ; preds = %36
  tail call void @_Py_Dealloc(ptr noundef nonnull %16) #8
  br label %Py_XDECREF.exit

Py_XDECREF.exit:                                  ; preds = %_Py_NewRef.exit, %.preheader, %PyTuple_GET_SIZE.exit, %34, %36, %39
  %.01829 = phi ptr [ null, %34 ], [ null, %36 ], [ null, %39 ], [ null, %PyTuple_GET_SIZE.exit ], [ %16, %.preheader ], [ %16, %_Py_NewRef.exit ]
  ret ptr %.01829
}